target datalayout = "e-m:e-p270:32:32-p271:32:32-p272:64:64-i64:64-i128:128-f80:128-n8:16:32:64-S128"
target triple = "x86_64-unknown-linux-gnu"

%class.symbol = type { ptr }
%class.rational = type { %class.mpq }
%class.mpq = type { %class.mpz, %class.mpz }
%class.mpz = type { i32, i8, ptr }
%class.ref_vector = type { %class.ref_vector_core }
%class.ref_vector_core = type { %class.ref_manager_wrapper, %class.ptr_vector }
%class.ref_manager_wrapper = type { ptr }
%class.ptr_vector = type { %class.vector.0 }
%class.vector.0 = type { ptr }
%"struct.opt::context::objective" = type <{ i32, [4 x i8], %class.obj_ref, %class.ref_vector, %class.vector.2, %"class.opt::adjust_value", %class.symbol, i32, [4 x i8] }>
%class.obj_ref = type { ptr, ptr }
%class.vector.2 = type { ptr }
%"class.opt::adjust_value" = type <{ %class.rational, i8, [7 x i8] }>

@_ZN6symbol4nullE = external global %class.symbol, align 8
@.str.81 = private unnamed_addr constant [5 x i8] c"null\00", align 1
@.str.87 = private unnamed_addr constant [3 x i8] c"k!\00", align 1

; Function Attrs: mustprogress uwtable
define linkonce_odr hidden noundef nonnull align 8 dereferenceable(8) ptr @_ZlsRSo6symbol(ptr noundef nonnull align 8 dereferenceable(8) %target, ptr %s.coerce) #5 comdat {
entry:
  %s = alloca %class.symbol, align 8
  %target.addr = alloca ptr, align 8
  %coerce.dive = getelementptr inbounds %class.symbol, ptr %s, i32 0, i32 0
  store ptr %s.coerce, ptr %coerce.dive, align 8
  store ptr %target, ptr %target.addr, align 8
  %m_data = getelementptr inbounds %class.symbol, ptr %s, i32 0, i32 0
  %0 = load ptr, ptr %m_data, align 8
  %1 = ptrtoint ptr %0 to i64
  %and = and i64 %1, 7
  %cmp = icmp eq i64 %and, 0
  br i1 %cmp, label %if.then, label %if.else5

if.then:                                          ; preds = %entry
  %m_data1 = getelementptr inbounds %class.symbol, ptr %s, i32 0, i32 0
  %2 = load ptr, ptr %m_data1, align 8
  %tobool = icmp ne ptr %2, null
  br i1 %tobool, label %if.then2, label %if.else

if.then2:                                         ; preds = %if.then
  %3 = load ptr, ptr %target.addr, align 8
  %m_data3 = getelementptr inbounds %class.symbol, ptr %s, i32 0, i32 0
  %4 = load ptr, ptr %m_data3, align 8
  %call = call noundef nonnull align 8 dereferenceable(8) ptr @_ZStlsISt11char_traitsIcEERSt13basic_ostreamIcT_ES5_PKc(ptr noundef nonnull align 8 dereferenceable(8) %3, ptr noundef %4)
  br label %if.end

if.else:                                          ; preds = %if.then
  %5 = load ptr, ptr %target.addr, align 8
  %call4 = call noundef nonnull align 8 dereferenceable(8) ptr @_ZStlsISt11char_traitsIcEERSt13basic_ostreamIcT_ES5_PKc(ptr noundef nonnull align 8 dereferenceable(8) %5, ptr noundef @.str.81)
  br label %if.end

if.end:                                           ; preds = %if.else, %if.then2
  br label %if.end9

if.else5:                                         ; preds = %entry
  %6 = load ptr, ptr %target.addr, align 8
  %call6 = call noundef nonnull align 8 dereferenceable(8) ptr @_ZStlsISt11char_traitsIcEERSt13basic_ostreamIcT_ES5_PKc(ptr noundef nonnull align 8 dereferenceable(8) %6, ptr noundef @.str.87)
  %m_data7 = getelementptr inbounds %class.symbol, ptr %s, i32 0, i32 0
  %7 = load ptr, ptr %m_data7, align 8
  %8 = ptrtoint ptr %7 to i64
  %shr = lshr i64 %8, 3
  %conv = trunc i64 %shr to i32
  %call8 = call noundef nonnull align 8 dereferenceable(8) ptr @_ZNSolsEi(ptr noundef nonnull align 8 dereferenceable(8) %call6, i32 noundef %conv)
  br label %if.end9

if.end9:                                          ; preds = %if.else5, %if.end
  %9 = load ptr, ptr %target.addr, align 8
  ret ptr %9
}

; Function Attrs: mustprogress nounwind uwtable
define linkonce_odr hidden noundef zeroext i1 @_ZneRK6symbolS1_(ptr noundef nonnull align 8 dereferenceable(8) %s1, ptr noundef nonnull align 8 dereferenceable(8) %s2) #4 comdat {
entry:
  %s1.addr = alloca ptr, align 8
  %s2.addr = alloca ptr, align 8
  store ptr %s1, ptr %s1.addr, align 8
  store ptr %s2, ptr %s2.addr, align 8
  %0 = load ptr, ptr %s1.addr, align 8
  %m_data = getelementptr inbounds %class.symbol, ptr %0, i32 0, i32 0
  %1 = load ptr, ptr %m_data, align 8
  %2 = load ptr, ptr %s2.addr, align 8
  %m_data1 = getelementptr inbounds %class.symbol, ptr %2, i32 0, i32 0
  %3 = load ptr, ptr %m_data1, align 8
  %cmp = icmp ne ptr %1, %3
  ret i1 %cmp
}

; Function Attrs: mustprogress uwtable
define hidden void @_ZNK3opt7context17display_objectiveERSoRKNS0_9objectiveE(ptr noundef nonnull align 8 dereferenceable(792) %this, ptr noundef nonnull align 8 dereferenceable(8) %out, ptr noundef nonnull align 8 dereferenceable(100) %obj) #5 align 2 {
entry:
  %this.addr = alloca ptr, align 8
  %out.addr = alloca ptr, align 8
  %obj.addr = alloca ptr, align 8
  %s = alloca %class.symbol, align 8
  %agg.tmp = alloca %class.symbol, align 8
  store ptr %this, ptr %this.addr, align 8
  store ptr %out, ptr %out.addr, align 8
  store ptr %obj, ptr %obj.addr, align 8
  %0 = load ptr, ptr %obj.addr, align 8
  %m_type = getelementptr inbounds %"struct.opt::context::objective", ptr %0, i32 0, i32 0
  %1 = load i32, ptr %m_type, align 8
  switch i32 %1, label %sw.default [
    i32 2, label %sw.bb
  ]

sw.bb:                                            ; preds = %entry
  %2 = load ptr, ptr %obj.addr, align 8
  %m_id = getelementptr inbounds %"struct.opt::context::objective", ptr %2, i32 0, i32 6
  call void @llvm.memcpy.p0.p0.i64(ptr align 8 %s, ptr align 8 %m_id, i64 8, i1 false)
  %call = call noundef zeroext i1 @_ZneRK6symbolS1_(ptr noundef nonnull align 8 dereferenceable(8) %s, ptr noundef nonnull align 8 dereferenceable(8) @_ZN6symbol4nullE)
  br i1 %call, label %if.then, label %if.end

if.then:                                          ; preds = %sw.bb
  %3 = load ptr, ptr %out.addr, align 8
  call void @llvm.memcpy.p0.p0.i64(ptr align 8 %agg.tmp, ptr align 8 %s, i64 8, i1 false)
  %coerce.dive = getelementptr inbounds %class.symbol, ptr %agg.tmp, i32 0, i32 0
  %4 = load ptr, ptr %coerce.dive, align 8
  %call2 = call noundef nonnull align 8 dereferenceable(8) ptr @_ZlsRSo6symbol(ptr noundef nonnull align 8 dereferenceable(8) %3, ptr %4)
  br label %if.end

if.end:                                           ; preds = %if.then, %sw.bb
  br label %sw.epilog

sw.default:                                       ; preds = %entry
  %5 = load ptr, ptr %out.addr, align 8
  %6 = load ptr, ptr %obj.addr, align 8
  %m_term = getelementptr inbounds %"struct.opt::context::objective", ptr %6, i32 0, i32 2
  %call3 = call noundef nonnull align 8 dereferenceable(8) ptr @_ZlsRSoRK7obj_refI3app11ast_managerE(ptr noundef nonnull align 8 dereferenceable(8) %5, ptr noundef nonnull align 8 dereferenceable(16) %m_term)
  br label %sw.epilog

sw.epilog:                                        ; preds = %sw.default, %if.end
  ret void
}