; Function Attrs: mustprogress uwtable
define hidden void @_ZNK3opt7context17display_objectiveERSoRKNS0_9objectiveE(ptr nocapture noundef nonnull readnone align 8 dereferenceable(792) %this, ptr noundef nonnull align 8 dereferenceable(8) %out, ptr noundef nonnull align 8 dereferenceable(100) %obj) local_unnamed_addr #3 align 2 {
entry:
  %0 = load i32, ptr %obj, align 8
  %cond = icmp eq i32 %0, 2
  br i1 %cond, label %sw.bb, label %sw.default

sw.bb:                                            ; preds = %entry
  %m_id = getelementptr inbounds i8, ptr %obj, i64 88
  %1 = load i64, ptr %m_id, align 8
  %2 = inttoptr i64 %1 to ptr
  %3 = load ptr, ptr @_ZN6symbol4nullE, align 8
  %cmp.i.not = icmp eq ptr %3, %2
  br i1 %cmp.i.not, label %sw.epilog, label %if.then

if.then:                                          ; preds = %sw.bb
  %and.i = and i64 %1, 7
  %cmp.i4 = icmp eq i64 %and.i, 0
  br i1 %cmp.i4, label %if.then.i, label %if.else5.i

if.then.i:                                        ; preds = %if.then
  %tobool.not.i = icmp eq i64 %1, 0
  br i1 %tobool.not.i, label %if.else.i, label %if.then2.i

if.then2.i:                                       ; preds = %if.then.i
  %call.i = tail call noundef nonnull align 8 dereferenceable(8) ptr @_ZStlsISt11char_traitsIcEERSt13basic_ostreamIcT_ES5_PKc(ptr noundef nonnull align 8 dereferenceable(8) %out, ptr noundef nonnull %2)
  br label %sw.epilog

if.else.i:                                        ; preds = %if.then.i
  %call4.i = tail call noundef nonnull align 8 dereferenceable(8) ptr @_ZStlsISt11char_traitsIcEERSt13basic_ostreamIcT_ES5_PKc(ptr noundef nonnull align 8 dereferenceable(8) %out, ptr noundef nonnull @.str.81)
  br label %sw.epilog

if.else5.i:                                       ; preds = %if.then
  %call6.i = tail call noundef nonnull align 8 dereferenceable(8) ptr @_ZStlsISt11char_traitsIcEERSt13basic_ostreamIcT_ES5_PKc(ptr noundef nonnull align 8 dereferenceable(8) %out, ptr noundef nonnull @.str.87)
  %shr.i = lshr i64 %1, 3
  %conv.i = trunc i64 %shr.i to i32
  %call8.i = tail call noundef nonnull align 8 dereferenceable(8) ptr @_ZNSolsEi(ptr noundef nonnull align 8 dereferenceable(8) %call6.i, i32 noundef %conv.i)
  br label %sw.epilog

sw.default:                                       ; preds = %entry
  %m_term = getelementptr inbounds i8, ptr %obj, i64 8
  %call3 = tail call noundef nonnull align 8 dereferenceable(8) ptr @_ZlsRSoRK7obj_refI3app11ast_managerE(ptr noundef nonnull align 8 dereferenceable(8) %out, ptr noundef nonnull align 8 dereferenceable(16) %m_term)
  br label %sw.epilog

sw.epilog:                                        ; preds = %if.else5.i, %if.else.i, %if.then2.i, %sw.bb, %sw.default
  ret void
}